ccopy_reg
_reconstructor
p0
(cpandas.core.frame
DataFrame
p1
c__builtin__
object
p2
Ntp3
Rp4
g0
(cpandas.core.internals
BlockManager
p5
g2
Ntp6
Rp7
((lp8
cpandas.core.index
_new_Index
p9
(cpandas.core.index
Index
p10
(dp11
S'data'
p12
cnumpy.core.multiarray
_reconstruct
p13
(cnumpy
ndarray
p14
(I0
tp15
S'b'
p16
tp17
Rp18
(I1
(I6
tp19
cnumpy
dtype
p20
(S'O8'
p21
I0
I1
tp22
Rp23
(I3
S'|'
p24
NNNI-1
I-1
I63
tp25
bI00
(lp26
S'ip'
p27
aS'max'
p28
aS'min'
p29
aS'mean'
p30
aS'std'
p31
aS'alive'
p32
atp33
bsS'name'
p34
Nstp35
Rp36
ag9
(g10
(dp37
g12
g13
(g14
(I0
tp38
g16
tp39
Rp40
(I1
(I39
tp41
g23
I00
(lp42
V192.168.1.1
p43
aV192.168.1.10
p44
aV192.168.1.11
p45
aV192.168.1.12
p46
aV192.168.1.13
p47
aV192.168.1.14
p48
aV192.168.1.15
p49
aV192.168.1.16
p50
aV192.168.1.17
p51
aV192.168.1.18
p52
aV192.168.1.19
p53
aV192.168.1.2
p54
aV192.168.1.20
p55
aV192.168.1.21
p56
aV192.168.1.22
p57
aV192.168.1.23
p58
aV192.168.1.24
p59
aV192.168.1.25
p60
aV192.168.1.26
p61
aV192.168.1.27
p62
aV192.168.1.28
p63
aV192.168.1.29
p64
aV192.168.1.3
p65
aV192.168.1.30
p66
aV192.168.1.31
p67
aV192.168.1.32
p68
aV192.168.1.33
p69
aV192.168.1.34
p70
aV192.168.1.35
p71
aV192.168.1.36
p72
aV192.168.1.37
p73
aV192.168.1.38
p74
aV192.168.1.39
p75
aV192.168.1.4
p76
aV192.168.1.5
p77
aV192.168.1.6
p78
aV192.168.1.7
p79
aV192.168.1.8
p80
aV192.168.1.9
p81
atp82
bsg34
Nstp83
Rp84
a(lp85
g13
(g14
(I0
tp86
g16
tp87
Rp88
(I1
(I1
I39
tp89
g20
(S'b1'
p90
I0
I1
tp91
Rp92
(I3
S'|'
p93
NNNI-1
I-1
I0
tp94
bI00
S'\x01\x00\x00\x00\x00\x00\x00\x00\x00\x00\x00\x00\x00\x00\x00\x00\x00\x00\x00\x00\x00\x00\x00\x00\x00\x00\x01\x01\x01\x00\x00\x01\x01\x00\x00\x00\x00\x00\x00'
p95
tp96
bag13
(g14
(I0
tp97
g16
tp98
Rp99
(I1
(I5
I39
tp100
g23
I00
(lp101
I01
aV192.168.1.10
p102
aV192.168.1.11
p103
aV192.168.1.12
p104
aV192.168.1.13
p105
aV192.168.1.14
p106
aV192.168.1.15
p107
aV192.168.1.16
p108
aV192.168.1.17
p109
aV192.168.1.18
p110
aV192.168.1.19
p111
aV192.168.1.2
p112
aV192.168.1.20
p113
aV192.168.1.21
p114
aV192.168.1.22
p115
aV192.168.1.23
p116
aV192.168.1.24
p117
aV192.168.1.25
p118
aV192.168.1.26
p119
aV192.168.1.27
p120
aV192.168.1.28
p121
aV192.168.1.29
p122
aV192.168.1.3
p123
aV192.168.1.30
p124
aV192.168.1.31
p125
aV192.168.1.32
p126
aI01
aV192.168.1.34
p127
aI01
aV192.168.1.36
p128
aV192.168.1.37
p129
aI01
aI01
aV192.168.1.4
p130
aV192.168.1.5
p131
aV192.168.1.6
p132
aV192.168.1.7
p133
aV192.168.1.8
p134
aV192.168.1.9
p135
aI01
aF3050.0
aF3046.0
aF3057.0
aF3241.0
aF3357.0
aF3059.0
aF3426.0
aF3464.0
aF3106.0
aF3546.0
aF3008.0
aF3586.0
aF3626.0
aF3107.0
aF3700.0
aF3738.0
aF3128.0
aF3806.0
aF3846.0
aF3132.0
aF3913.0
aF3012.0
aF3956.0
aF3994.0
aF7123.0
aI01
aF15264.0
aI01
aF9140.0
aF9063.0
aI01
aI01
aF3016.0
aF3026.0
aF3022.0
aF3032.0
aF3037.0
aF3042.0
aI01
aF3022.0
aF3021.0
aF3020.0
aF3024.0
aF3028.0
aF3027.0
aF3026.0
aF3025.0
aF3032.0
aF3040.0
aF3008.0
aF3039.0
aF3038.0
aF3037.0
aF3036.0
aF3035.0
aF3034.0
aF3033.0
aF3041.0
aF3041.0
aF3045.0
aF3009.0
aF3044.0
aF3043.0
aF3042.0
aI01
aF159.0
aI01
aF3051.0
aF3056.0
aI01
aI01
aF3010.0
aF3013.0
aF3012.0
aF3011.0
aF3019.0
aF3023.0
aI01
aF3036.0
aF3033.5
aF3038.5
aF3132.5
aF3192.5
aF3043.0
aF3226.0
aF3244.5
aF3069.0
aF3293.0
aF3008.0
aF3312.5
aF3332.0
aF3072.0
aF3368.0
aF3386.5
aF3081.0
aF3419.5
aF3443.5
aF3086.5
aF3479.0
aF3010.5
aF3500.0
aF3518.5
aF5082.5
aI01
aF7711.5
aI01
aF6095.5
aF6059.5
aI01
aI01
aF3013.0
aF3019.5
aF3017.0
aF3021.5
aF3028.0
aF3032.5
aI01
aF19.79898987322333
aF17.67766952966369
aF26.16295090390226
aF153.4421715174808
aF232.63813101037414
aF22.627416997969522
aF282.842712474619
aF310.41987694089437
aF52.32590180780452
aF357.79603128039304
aF0.0
aF386.7874093090415
aF415.77878733768995
aF49.49747468305833
aF469.51890270786754
aF497.0960671741429
aF66.46803743153546
aF546.5935418572012
aF569.2209588551708
aF64.34671708797582
aF613.7686860699232
aF2.1213203435596424
aF644.8813844421313
aF672.4585489084067
aF2885.7027740223007
aI01
aF10680.847929822801
aI01
aF4305.573190644888
aF4247.590434587591
aI01
aI01
aF4.242640687119285
aF9.192388155425117
aF7.0710678118654755
aF14.849242404917497
aF12.727922061357855
aF13.435028842544403
atp136
ba(lp137
g9
(g10
(dp138
g12
g13
(g14
(I0
tp139
g16
tp140
Rp141
(I1
(I1
tp142
g23
I00
(lp143
g32
atp144
bsg34
Nstp145
Rp146
ag9
(g10
(dp147
g12
g13
(g14
(I0
tp148
g16
tp149
Rp150
(I1
(I5
tp151
g23
I00
(lp152
g27
ag28
ag29
ag30
ag31
atp153
bsg34
Nstp154
Rp155
a(dp156
S'0.14.1'
p157
(dp158
S'axes'
p159
g8
sS'blocks'
p160
(lp161
(dp162
S'mgr_locs'
p163
c__builtin__
slice
p164
(I5
I6
I1
tp165
Rp166
sS'values'
p167
g88
sa(dp168
g163
g164
(I0
I5
I1
tp169
Rp170
sg167
g99
sasstp171
bb.